target datalayout = "e-m:e-p270:32:32-p271:32:32-p272:64:64-i64:64-i128:128-f80:128-n8:16:32:64-S128"
target triple = "x86_64-pc-linux-gnu"

%struct.ossl_cmp_itav_st = type { ptr, %union.anon }
%union.anon = type { ptr }
%struct.ossl_cmp_certreqtemplate_st = type { ptr, ptr }

@OSSL_CMP_ITAV_it.local_it = internal constant { i8, [7 x i8], i64, ptr, i64, ptr, i64, ptr } { i8 1, [7 x i8] zeroinitializer, i64 16, ptr @OSSL_CMP_ITAV_seq_tt, i64 2, ptr null, i64 16, ptr @.str.6 }, align 8
@OSSL_CMP_CERTREQTEMPLATE_it.local_it = internal constant { i8, [7 x i8], i64, ptr, i64, ptr, i64, ptr } { i8 1, [7 x i8] zeroinitializer, i64 16, ptr @OSSL_CMP_CERTREQTEMPLATE_seq_tt, i64 2, ptr null, i64 16, ptr @.str.9 }, align 8
@.str.12 = private unnamed_addr constant [32 x i8] c"../openssl/crypto/cmp/cmp_asn.c\00", align 1
@__func__.OSSL_CMP_ITAV_new0_certReqTemplate = private unnamed_addr constant [35 x i8] c"OSSL_CMP_ITAV_new0_certReqTemplate\00", align 1

; Function Attrs: nounwind uwtable
define ptr @OSSL_CMP_CERTREQTEMPLATE_it() #0 {
  ret ptr @OSSL_CMP_CERTREQTEMPLATE_it.local_it
}

; Function Attrs: nounwind uwtable
define ptr @OSSL_CMP_ITAV_it() #0 {
  ret ptr @OSSL_CMP_ITAV_it.local_it
}

; Function Attrs: nounwind uwtable
define void @OSSL_CMP_ITAV_free(ptr noundef %0) #0 {
  %2 = alloca ptr, align 8
  store ptr %0, ptr %2, align 8, !tbaa !28
  %3 = load ptr, ptr %2, align 8, !tbaa !28
  %4 = call ptr @OSSL_CMP_ITAV_it()
  call void @ASN1_item_free(ptr noundef %3, ptr noundef %4)
  ret void
}

; Function Attrs: nounwind uwtable
define ptr @OSSL_CMP_CERTREQTEMPLATE_new() #0 {
  %1 = call ptr @OSSL_CMP_CERTREQTEMPLATE_it()
  %2 = call ptr @ASN1_item_new(ptr noundef %1)
  ret ptr %2
}

; Function Attrs: nounwind uwtable
define ptr @OSSL_CMP_ITAV_new() #0 {
  %1 = call ptr @OSSL_CMP_ITAV_it()
  %2 = call ptr @ASN1_item_new(ptr noundef %1)
  ret ptr %2
}

; Function Attrs: nounwind uwtable
define ptr @OSSL_CMP_ITAV_new0_certReqTemplate(ptr noundef %0, ptr noundef %1) #0 {
  %3 = alloca ptr, align 8
  %4 = alloca ptr, align 8
  %5 = alloca ptr, align 8
  %6 = alloca ptr, align 8
  %7 = alloca ptr, align 8
  %8 = alloca i32, align 4
  store ptr %0, ptr %4, align 8, !tbaa !80
  store ptr %1, ptr %5, align 8, !tbaa !36
  call void @llvm.lifetime.start.p0(i64 8, ptr %6) #4
  call void @llvm.lifetime.start.p0(i64 8, ptr %7) #4
  %9 = load ptr, ptr %4, align 8, !tbaa !80
  %10 = icmp eq ptr %9, null
  br i1 %10, label %11, label %15

11:                                               ; preds = %2
  %12 = load ptr, ptr %5, align 8, !tbaa !36
  %13 = icmp ne ptr %12, null
  br i1 %13, label %14, label %15

14:                                               ; preds = %11
  call void @ERR_new()
  call void @ERR_set_debug(ptr noundef @.str.12, i32 noundef 386, ptr noundef @__func__.OSSL_CMP_ITAV_new0_certReqTemplate)
  call void (i32, i32, ptr, ...) @ERR_set_error(i32 noundef 58, i32 noundef 524550, ptr noundef null)
  store ptr null, ptr %3, align 8
  store i32 1, ptr %8, align 4
  br label %43

15:                                               ; preds = %11, %2
  %16 = call ptr @OSSL_CMP_ITAV_new()
  store ptr %16, ptr %6, align 8, !tbaa !28
  %17 = icmp eq ptr %16, null
  br i1 %17, label %18, label %19

18:                                               ; preds = %15
  store ptr null, ptr %3, align 8
  store i32 1, ptr %8, align 4
  br label %43

19:                                               ; preds = %15
  %20 = call ptr @OBJ_nid2obj(i32 noundef 1225)
  %21 = load ptr, ptr %6, align 8, !tbaa !28
  %22 = getelementptr inbounds nuw %struct.ossl_cmp_itav_st, ptr %21, i32 0, i32 0
  store ptr %20, ptr %22, align 8, !tbaa !54
  %23 = load ptr, ptr %4, align 8, !tbaa !80
  %24 = icmp eq ptr %23, null
  br i1 %24, label %25, label %27

25:                                               ; preds = %19
  %26 = load ptr, ptr %6, align 8, !tbaa !28
  store ptr %26, ptr %3, align 8
  store i32 1, ptr %8, align 4
  br label %43

27:                                               ; preds = %19
  %28 = call ptr @OSSL_CMP_CERTREQTEMPLATE_new()
  store ptr %28, ptr %7, align 8, !tbaa !40
  %29 = icmp eq ptr %28, null
  br i1 %29, label %30, label %32

30:                                               ; preds = %27
  %31 = load ptr, ptr %6, align 8, !tbaa !28
  call void @OSSL_CMP_ITAV_free(ptr noundef %31)
  store ptr null, ptr %3, align 8
  store i32 1, ptr %8, align 4
  br label %43

32:                                               ; preds = %27
  %33 = load ptr, ptr %7, align 8, !tbaa !40
  %34 = load ptr, ptr %6, align 8, !tbaa !28
  %35 = getelementptr inbounds nuw %struct.ossl_cmp_itav_st, ptr %34, i32 0, i32 1
  store ptr %33, ptr %35, align 8, !tbaa !56
  %36 = load ptr, ptr %4, align 8, !tbaa !80
  %37 = load ptr, ptr %7, align 8, !tbaa !40
  %38 = getelementptr inbounds nuw %struct.ossl_cmp_certreqtemplate_st, ptr %37, i32 0, i32 0
  store ptr %36, ptr %38, align 8, !tbaa !82
  %39 = load ptr, ptr %5, align 8, !tbaa !36
  %40 = load ptr, ptr %7, align 8, !tbaa !40
  %41 = getelementptr inbounds nuw %struct.ossl_cmp_certreqtemplate_st, ptr %40, i32 0, i32 1
  store ptr %39, ptr %41, align 8, !tbaa !84
  %42 = load ptr, ptr %6, align 8, !tbaa !28
  store ptr %42, ptr %3, align 8
  store i32 1, ptr %8, align 4
  br label %43

43:                                               ; preds = %32, %30, %25, %18, %14
  call void @llvm.lifetime.end.p0(i64 8, ptr %7) #4
  call void @llvm.lifetime.end.p0(i64 8, ptr %6) #4
  %44 = load ptr, ptr %3, align 8
  ret ptr %44
}