; Function Attrs: nounwind uwtable
define ptr @OSSL_CMP_ITAV_new0_certReqTemplate(ptr noundef %0, ptr noundef %1) local_unnamed_addr #1 {
  %3 = icmp eq ptr %0, null
  %4 = icmp ne ptr %1, null
  %or.cond = and i1 %3, %4
  br i1 %or.cond, label %5, label %6

5:                                                ; preds = %2
  tail call void @ERR_new() #6
  tail call void @ERR_set_debug(ptr noundef nonnull @.str.12, i32 noundef 386, ptr noundef nonnull @__func__.OSSL_CMP_ITAV_new0_certReqTemplate) #6
  tail call void (i32, i32, ptr, ...) @ERR_set_error(i32 noundef 58, i32 noundef 524550, ptr noundef null) #6
  br label %18

6:                                                ; preds = %2
  %7 = tail call ptr @ASN1_item_new(ptr noundef nonnull @OSSL_CMP_ITAV_it.local_it) #6
  %8 = icmp eq ptr %7, null
  br i1 %8, label %18, label %9

9:                                                ; preds = %6
  %10 = tail call ptr @OBJ_nid2obj(i32 noundef 1225) #6
  store ptr %10, ptr %7, align 8, !tbaa !3
  br i1 %3, label %18, label %11

11:                                               ; preds = %9
  %12 = tail call ptr @ASN1_item_new(ptr noundef nonnull @OSSL_CMP_CERTREQTEMPLATE_it.local_it) #6
  %13 = icmp eq ptr %12, null
  br i1 %13, label %14, label %15

14:                                               ; preds = %11
  tail call void @ASN1_item_free(ptr noundef nonnull %7, ptr noundef nonnull @OSSL_CMP_ITAV_it.local_it) #6
  br label %18

15:                                               ; preds = %11
  %16 = getelementptr inbounds nuw i8, ptr %7, i64 8
  store ptr %12, ptr %16, align 8, !tbaa !9
  store ptr %0, ptr %12, align 8, !tbaa !22
  %17 = getelementptr inbounds nuw i8, ptr %12, i64 8
  store ptr %1, ptr %17, align 8, !tbaa !26
  br label %18

18:                                               ; preds = %9, %6, %15, %14, %5
  %.0 = phi ptr [ null, %5 ], [ null, %14 ], [ %7, %15 ], [ null, %6 ], [ %7, %9 ]
  ret ptr %.0
}